; Function Attrs: nounwind uwtable
define dso_local void @_PyInterpreterState_SetEvalFrameFunc(ptr noundef captures(none) %0, ptr noundef %1) local_unnamed_addr #1 {
  %3 = icmp eq ptr %1, @_PyEval_EvalFrameDefault
  %spec.store.select = select i1 %3, ptr null, ptr %1
  %4 = getelementptr inbounds nuw i8, ptr %0, i64 8472
  %5 = load ptr, ptr %4, align 8, !tbaa !308
  %6 = icmp eq ptr %spec.store.select, %5
  br i1 %6, label %21, label %7

7:                                                ; preds = %2
  %8 = tail call align 8 ptr @llvm.threadlocal.address.p0(ptr align 8 @_Py_tss_tstate)
  %9 = load ptr, ptr %8, align 8, !tbaa !4
  %10 = icmp eq ptr %9, null
  br i1 %10, label %11, label %_Py_EnsureFuncTstateNotNULL.exit.i

11:                                               ; preds = %7
  tail call void @_Py_FatalErrorFunc(ptr noundef nonnull @__func__.PyInterpreterState_Get, ptr noundef nonnull @.str.162) #17
  unreachable

_Py_EnsureFuncTstateNotNULL.exit.i:               ; preds = %7
  %12 = getelementptr inbounds nuw i8, ptr %9, i64 16
  %13 = load ptr, ptr %12, align 8, !tbaa !221
  %14 = icmp eq ptr %13, null
  br i1 %14, label %15, label %PyInterpreterState_Get.exit

15:                                               ; preds = %_Py_EnsureFuncTstateNotNULL.exit.i
  tail call void @_Py_FatalErrorFunc(ptr noundef nonnull @__func__.PyInterpreterState_Get, ptr noundef nonnull @.str.17) #17
  unreachable

PyInterpreterState_Get.exit:                      ; preds = %_Py_EnsureFuncTstateNotNULL.exit.i
  %16 = getelementptr inbounds nuw i8, ptr %13, i64 222994
  %17 = load i8, ptr %16, align 2, !tbaa !309
  %.not = icmp eq i8 %17, -1
  br i1 %.not, label %20, label %18

18:                                               ; preds = %PyInterpreterState_Get.exit
  %19 = add nuw i8 %17, 1
  store i8 %19, ptr %16, align 2, !tbaa !309
  br label %20

20:                                               ; preds = %18, %PyInterpreterState_Get.exit
  store ptr %spec.store.select, ptr %4, align 8, !tbaa !308
  br label %21

21:                                               ; preds = %2, %20
  ret void
}